; Function Attrs: nofree nounwind uwtable
define void @Ivy_FraigCheckOutputSimsSavePattern(ptr noundef readonly captures(none) %0, ptr noundef readonly captures(none) %1) local_unnamed_addr #15 {
  %3 = getelementptr i8, ptr %1, i64 32
  %.val29 = load ptr, ptr %3, align 8, !tbaa !103
  %4 = getelementptr inbounds nuw i8, ptr %.val29, i64 32
  %5 = getelementptr inbounds nuw i8, ptr %0, i64 40
  %6 = load i32, ptr %5, align 8, !tbaa !96
  %7 = icmp sgt i32 %6, 0
  br i1 %7, label %.lr.ph.preheader, label %._crit_edge

.lr.ph.preheader:                                 ; preds = %2
  %wide.trip.count = zext nneg i32 %6 to i64
  br label %.lr.ph

.lr.ph:                                           ; preds = %.lr.ph.preheader, %10
  %indvars.iv = phi i64 [ 0, %.lr.ph.preheader ], [ %indvars.iv.next, %10 ]
  %8 = getelementptr inbounds nuw [0 x i32], ptr %4, i64 0, i64 %indvars.iv
  %9 = load i32, ptr %8, align 4, !tbaa !38
  %.not = icmp eq i32 %9, 0
  br i1 %.not, label %10, label %._crit_edge.loopexit.split.loop.exit

10:                                               ; preds = %.lr.ph
  %indvars.iv.next = add nuw nsw i64 %indvars.iv, 1
  %exitcond.not = icmp eq i64 %indvars.iv.next, %wide.trip.count
  br i1 %exitcond.not, label %._crit_edge, label %.lr.ph, !llvm.loop !193

._crit_edge.loopexit.split.loop.exit:             ; preds = %.lr.ph
  %11 = trunc nuw nsw i64 %indvars.iv to i32
  br label %._crit_edge

._crit_edge:                                      ; preds = %10, %._crit_edge.loopexit.split.loop.exit, %2
  %.0.lcssa = phi i32 [ 0, %2 ], [ %11, %._crit_edge.loopexit.split.loop.exit ], [ %6, %10 ]
  %12 = zext nneg i32 %.0.lcssa to i64
  %13 = getelementptr inbounds nuw [0 x i32], ptr %4, i64 0, i64 %12
  %14 = load i32, ptr %13, align 4, !tbaa !38
  br label %15

15:                                               ; preds = %._crit_edge, %18
  %.02433 = phi i32 [ 0, %._crit_edge ], [ %19, %18 ]
  %16 = shl nuw i32 1, %.02433
  %17 = and i32 %14, %16
  %.not25 = icmp eq i32 %17, 0
  br i1 %.not25, label %18, label %20

18:                                               ; preds = %15
  %19 = add nuw nsw i32 %.02433, 1
  %exitcond39.not = icmp eq i32 %19, 32
  br i1 %exitcond39.not, label %20, label %15, !llvm.loop !194

20:                                               ; preds = %15, %18
  %.024.lcssa = phi i32 [ %.02433, %15 ], [ 32, %18 ]
  %21 = getelementptr inbounds nuw i8, ptr %0, i64 32
  %22 = load ptr, ptr %21, align 8, !tbaa !69
  %23 = getelementptr i8, ptr %22, i64 124
  %.val27 = load i32, ptr %23, align 4, !tbaa !38
  %24 = sext i32 %.val27 to i64
  %25 = shl nsw i64 %24, 2
  %26 = tail call noalias ptr @malloc(i64 noundef %25) #27
  %27 = getelementptr inbounds nuw i8, ptr %0, i64 24
  %28 = load ptr, ptr %27, align 8, !tbaa !86
  %29 = load ptr, ptr %28, align 8, !tbaa !111
  %30 = getelementptr i8, ptr %29, i64 4
  %.val34 = load i32, ptr %30, align 4, !tbaa !47
  %31 = icmp sgt i32 %.val34, 0
  br i1 %31, label %.lr.ph37, label %.critedge

.lr.ph37:                                         ; preds = %20
  %32 = getelementptr i8, ptr %29, i64 8
  %.val26 = load ptr, ptr %32, align 8, !tbaa !49
  %33 = lshr i32 %.024.lcssa, 5
  %34 = add nuw i32 %33, %.0.lcssa
  %35 = and i32 %34, 134217727
  %36 = zext nneg i32 %35 to i64
  %37 = and i32 %.024.lcssa, 31
  %38 = zext nneg i32 %.val34 to i64
  br label %39

39:                                               ; preds = %.lr.ph37, %39
  %indvars.iv40 = phi i64 [ 0, %.lr.ph37 ], [ %indvars.iv.next41, %39 ]
  %40 = getelementptr inbounds nuw ptr, ptr %.val26, i64 %indvars.iv40
  %41 = load ptr, ptr %40, align 8, !tbaa !51
  %42 = getelementptr i8, ptr %41, i64 32
  %.val28 = load ptr, ptr %42, align 8, !tbaa !103
  %43 = getelementptr inbounds nuw i8, ptr %.val28, i64 32
  %44 = getelementptr inbounds nuw i32, ptr %43, i64 %36
  %45 = load i32, ptr %44, align 4, !tbaa !38
  %46 = lshr i32 %45, %37
  %47 = and i32 %46, 1
  %48 = getelementptr inbounds nuw i32, ptr %26, i64 %indvars.iv40
  store i32 %47, ptr %48, align 4, !tbaa !38
  %indvars.iv.next41 = add nuw nsw i64 %indvars.iv40, 1
  %49 = icmp samesign ult i64 %indvars.iv.next41, %38
  br i1 %49, label %39, label %.critedge, !llvm.loop !195

.critedge:                                        ; preds = %39, %20
  %50 = getelementptr inbounds nuw i8, ptr %22, i64 200
  store ptr %26, ptr %50, align 8, !tbaa !39
  ret void
}